target datalayout = "e-m:e-p270:32:32-p271:32:32-p272:64:64-i64:64-i128:128-f80:128-n8:16:32:64-S128"
target triple = "x86_64-pc-linux-gnu"

%struct.attr_check = type { i32, i32, ptr, i32, ptr, ptr }
%struct.attr_stack = type { ptr, ptr, i64, i32, i32, ptr }

; Function Attrs: nounwind uwtable
define internal void @drop_attr_stack(ptr noundef %0) #0 {
  %2 = alloca ptr, align 8
  %3 = alloca ptr, align 8
  store ptr %0, ptr %2, align 8, !tbaa !54
  br label %4

4:                                                ; preds = %8, %1
  %5 = load ptr, ptr %2, align 8, !tbaa !54
  %6 = load ptr, ptr %5, align 8, !tbaa !56
  %7 = icmp ne ptr %6, null
  br i1 %7, label %8, label %16

8:                                                ; preds = %4
  call void @llvm.lifetime.start.p0(i64 8, ptr %3) #11
  %9 = load ptr, ptr %2, align 8, !tbaa !54
  %10 = load ptr, ptr %9, align 8, !tbaa !56
  store ptr %10, ptr %3, align 8, !tbaa !56
  %11 = load ptr, ptr %3, align 8, !tbaa !56
  %12 = getelementptr inbounds nuw %struct.attr_stack, ptr %11, i32 0, i32 0
  %13 = load ptr, ptr %12, align 8, !tbaa !57
  %14 = load ptr, ptr %2, align 8, !tbaa !54
  store ptr %13, ptr %14, align 8, !tbaa !56
  %15 = load ptr, ptr %3, align 8, !tbaa !56
  call void @attr_stack_free(ptr noundef %15)
  call void @llvm.lifetime.end.p0(i64 8, ptr %3) #11
  br label %4, !llvm.loop !60

16:                                               ; preds = %4
  ret void
}

; Function Attrs: nounwind uwtable
define dso_local void @attr_check_clear(ptr noundef %0) #0 {
  %2 = alloca ptr, align 8
  store ptr %0, ptr %2, align 8, !tbaa !32
  br label %3

3:                                                ; preds = %1
  %4 = load ptr, ptr %2, align 8, !tbaa !32
  %5 = getelementptr inbounds nuw %struct.attr_check, ptr %4, i32 0, i32 2
  %6 = load ptr, ptr %5, align 8, !tbaa !46
  call void @free(ptr noundef %6) #11
  %7 = load ptr, ptr %2, align 8, !tbaa !32
  %8 = getelementptr inbounds nuw %struct.attr_check, ptr %7, i32 0, i32 2
  store ptr null, ptr %8, align 8, !tbaa !46
  br label %9

9:                                                ; preds = %3
  %10 = load ptr, ptr %2, align 8, !tbaa !32
  %11 = getelementptr inbounds nuw %struct.attr_check, ptr %10, i32 0, i32 1
  store i32 0, ptr %11, align 4, !tbaa !45
  %12 = load ptr, ptr %2, align 8, !tbaa !32
  %13 = getelementptr inbounds nuw %struct.attr_check, ptr %12, i32 0, i32 0
  store i32 0, ptr %13, align 8, !tbaa !40
  br label %14

14:                                               ; preds = %9
  %15 = load ptr, ptr %2, align 8, !tbaa !32
  %16 = getelementptr inbounds nuw %struct.attr_check, ptr %15, i32 0, i32 4
  %17 = load ptr, ptr %16, align 8, !tbaa !52
  call void @free(ptr noundef %17) #11
  %18 = load ptr, ptr %2, align 8, !tbaa !32
  %19 = getelementptr inbounds nuw %struct.attr_check, ptr %18, i32 0, i32 4
  store ptr null, ptr %19, align 8, !tbaa !52
  br label %20

20:                                               ; preds = %14
  %21 = load ptr, ptr %2, align 8, !tbaa !32
  %22 = getelementptr inbounds nuw %struct.attr_check, ptr %21, i32 0, i32 3
  store i32 0, ptr %22, align 8, !tbaa !53
  %23 = load ptr, ptr %2, align 8, !tbaa !32
  %24 = getelementptr inbounds nuw %struct.attr_check, ptr %23, i32 0, i32 5
  call void @drop_attr_stack(ptr noundef %24)
  ret void
}