; Function Attrs: nounwind uwtable
define dso_local void @attr_check_clear(ptr noundef captures(none) initializes((0, 8), (16, 20)) %0) local_unnamed_addr #1 {
  %2 = getelementptr inbounds nuw i8, ptr %0, i64 8
  %3 = load ptr, ptr %2, align 8, !tbaa !51
  tail call void @free(ptr noundef %3) #21
  %4 = getelementptr inbounds nuw i8, ptr %0, i64 24
  tail call void @llvm.memset.p0.i64(ptr noundef nonnull align 8 dereferenceable(16) %0, i8 0, i64 16, i1 false)
  %5 = load ptr, ptr %4, align 8, !tbaa !55
  tail call void @free(ptr noundef %5) #21
  store ptr null, ptr %4, align 8, !tbaa !55
  %6 = getelementptr inbounds nuw i8, ptr %0, i64 16
  store i32 0, ptr %6, align 8, !tbaa !56
  %7 = getelementptr inbounds nuw i8, ptr %0, i64 32
  %8 = load ptr, ptr %7, align 8, !tbaa !57
  %.not5.i = icmp eq ptr %8, null
  br i1 %.not5.i, label %drop_attr_stack.exit, label %.lr.ph.i

.lr.ph.i:                                         ; preds = %1, %.lr.ph.i
  %9 = phi ptr [ %11, %.lr.ph.i ], [ %8, %1 ]
  %10 = load ptr, ptr %9, align 8, !tbaa !58
  store ptr %10, ptr %7, align 8, !tbaa !57
  tail call fastcc void @attr_stack_free(ptr noundef nonnull %9)
  %11 = load ptr, ptr %7, align 8, !tbaa !57
  %.not.i = icmp eq ptr %11, null
  br i1 %.not.i, label %drop_attr_stack.exit, label %.lr.ph.i, !llvm.loop !61

drop_attr_stack.exit:                             ; preds = %.lr.ph.i, %1
  ret void
}